; Function Attrs: mustprogress nounwind uwtable
define void @_ZN6casadi19DeserializingStream5resetEv(ptr nocapture noundef nonnull align 8 dereferenceable(41) %0) local_unnamed_addr #4 align 2 personality ptr @__gxx_personality_v0 {
  %2 = load ptr, ptr %0, align 8
  %3 = getelementptr inbounds i8, ptr %0, i64 8
  %4 = load ptr, ptr %3, align 8
  %.not.i.i = icmp eq ptr %4, %2
  br i1 %.not.i.i, label %_ZNSt6vectorIN6casadi18UniversalNodeOwnerESaIS1_EE5clearEv.exit, label %.lr.ph.i.i.i.i.i

.lr.ph.i.i.i.i.i:                                 ; preds = %1, %_ZSt8_DestroyIN6casadi18UniversalNodeOwnerEEvPT_.exit.i.i.i.i.i
  %.05.i.i.i.i.i = phi ptr [ %34, %_ZSt8_DestroyIN6casadi18UniversalNodeOwnerEEvPT_.exit.i.i.i.i.i ], [ %2, %1 ]
  %5 = load ptr, ptr %.05.i.i.i.i.i, align 8
  %.not.i.i.i.i.i.i.i = icmp eq ptr %5, null
  br i1 %.not.i.i.i.i.i.i.i, label %_ZSt8_DestroyIN6casadi18UniversalNodeOwnerEEvPT_.exit.i.i.i.i.i, label %6

6:                                                ; preds = %.lr.ph.i.i.i.i.i
  %7 = getelementptr inbounds i8, ptr %.05.i.i.i.i.i, i64 8
  %8 = load i8, ptr %7, align 8
  %9 = and i8 %8, 1
  %.not3.i.i.i.i.i.i.i = icmp eq i8 %9, 0
  br i1 %.not3.i.i.i.i.i.i.i, label %22, label %10

10:                                               ; preds = %6
  %11 = getelementptr inbounds i8, ptr %5, i64 12
  %12 = load i32, ptr %11, align 4
  %13 = add i32 %12, -1
  store i32 %13, ptr %11, align 4
  %14 = icmp eq i32 %13, 0
  br i1 %14, label %15, label %_ZSt8_DestroyIN6casadi18UniversalNodeOwnerEEvPT_.exit.i.i.i.i.i

15:                                               ; preds = %10
  %16 = load ptr, ptr %.05.i.i.i.i.i, align 8
  %17 = icmp eq ptr %16, null
  br i1 %17, label %_ZSt8_DestroyIN6casadi18UniversalNodeOwnerEEvPT_.exit.i.i.i.i.i, label %18

18:                                               ; preds = %15
  %19 = load ptr, ptr %16, align 8
  %20 = getelementptr inbounds i8, ptr %19, i64 8
  %21 = load ptr, ptr %20, align 8
  tail call void %21(ptr noundef nonnull align 8 dereferenceable(16) %16) #20
  br label %_ZSt8_DestroyIN6casadi18UniversalNodeOwnerEEvPT_.exit.i.i.i.i.i

22:                                               ; preds = %6
  %23 = getelementptr inbounds i8, ptr %5, i64 8
  %24 = load i64, ptr %23, align 8
  %25 = add nsw i64 %24, -1
  store i64 %25, ptr %23, align 8
  %26 = icmp eq i64 %25, 0
  br i1 %26, label %27, label %_ZSt8_DestroyIN6casadi18UniversalNodeOwnerEEvPT_.exit.i.i.i.i.i

27:                                               ; preds = %22
  %28 = load ptr, ptr %.05.i.i.i.i.i, align 8
  %29 = icmp eq ptr %28, null
  br i1 %29, label %_ZSt8_DestroyIN6casadi18UniversalNodeOwnerEEvPT_.exit.i.i.i.i.i, label %30

30:                                               ; preds = %27
  %31 = load ptr, ptr %28, align 8
  %32 = getelementptr inbounds i8, ptr %31, i64 8
  %33 = load ptr, ptr %32, align 8
  tail call void %33(ptr noundef nonnull align 8 dereferenceable(24) %28) #20
  br label %_ZSt8_DestroyIN6casadi18UniversalNodeOwnerEEvPT_.exit.i.i.i.i.i

_ZSt8_DestroyIN6casadi18UniversalNodeOwnerEEvPT_.exit.i.i.i.i.i: ; preds = %30, %27, %22, %18, %15, %10, %.lr.ph.i.i.i.i.i
  %34 = getelementptr inbounds i8, ptr %.05.i.i.i.i.i, i64 16
  %.not.i.i.i.i.i = icmp eq ptr %34, %4
  br i1 %.not.i.i.i.i.i, label %_ZSt8_DestroyIPN6casadi18UniversalNodeOwnerES1_EvT_S3_RSaIT0_E.exit.i.i, label %.lr.ph.i.i.i.i.i, !llvm.loop !16

_ZSt8_DestroyIPN6casadi18UniversalNodeOwnerES1_EvT_S3_RSaIT0_E.exit.i.i: ; preds = %_ZSt8_DestroyIN6casadi18UniversalNodeOwnerEEvPT_.exit.i.i.i.i.i
  store ptr %2, ptr %3, align 8
  br label %_ZNSt6vectorIN6casadi18UniversalNodeOwnerESaIS1_EE5clearEv.exit

_ZNSt6vectorIN6casadi18UniversalNodeOwnerESaIS1_EE5clearEv.exit: ; preds = %1, %_ZSt8_DestroyIPN6casadi18UniversalNodeOwnerES1_EvT_S3_RSaIT0_E.exit.i.i
  ret void
}